; Function Attrs: mustprogress nounwind uwtable
define hidden noundef ptr @_ZN16PhaseMacroExpand19basictype2arraycopyE9BasicTypeP4NodeS2_bRPKcb(ptr nocapture noundef nonnull readonly align 8 dereferenceable(97) %0, i8 noundef zeroext %1, ptr noundef %2, ptr noundef %3, i1 noundef zeroext %4, ptr noundef nonnull align 8 dereferenceable(8) %5, i1 noundef zeroext %6) local_unnamed_addr #0 align 2 {
  %8 = getelementptr inbounds i8, ptr %0, i64 16
  %9 = load ptr, ptr %8, align 8
  %10 = tail call noundef ptr @_ZN11PhaseValues13find_int_typeEP4Node(ptr noundef nonnull align 8 dereferenceable(2400) %9, ptr noundef %2) #6
  %11 = load ptr, ptr %8, align 8
  %12 = tail call noundef ptr @_ZN11PhaseValues13find_int_typeEP4Node(ptr noundef nonnull align 8 dereferenceable(2400) %11, ptr noundef %3) #6
  %.not = icmp eq ptr %10, null
  br i1 %.not, label %57, label %13

13:                                               ; preds = %7
  %14 = getelementptr inbounds i8, ptr %10, i64 24
  %15 = load i32, ptr %14, align 8
  %16 = getelementptr inbounds i8, ptr %10, i64 28
  %17 = load i32, ptr %16, align 4
  %18 = icmp eq i32 %15, %17
  %19 = icmp ne ptr %12, null
  %or.cond = and i1 %19, %18
  br i1 %or.cond, label %20, label %57

20:                                               ; preds = %13
  %21 = getelementptr inbounds i8, ptr %12, i64 24
  %22 = load i32, ptr %21, align 8
  %23 = getelementptr inbounds i8, ptr %12, i64 28
  %24 = load i32, ptr %23, align 4
  %25 = icmp eq i32 %22, %24
  br i1 %25, label %26, label %57

26:                                               ; preds = %20
  %27 = zext i8 %1 to i64
  %28 = getelementptr inbounds [20 x i32], ptr @_type2aelembytes, i64 0, i64 %27
  %29 = load i32, ptr %28, align 4
  %30 = load i8, ptr @UseCompressedClassPointers, align 1
  %31 = trunc i8 %30 to i1
  %32 = select i1 %31, i32 16, i32 20
  %33 = and i8 %1, -2
  %or.cond.i.i = icmp eq i8 %33, 12
  br i1 %or.cond.i.i, label %34, label %_ZN12arrayOopDesc30element_type_should_be_alignedE9BasicType.exit.i

34:                                               ; preds = %26
  %35 = load i8, ptr @UseCompressedOops, align 1
  %36 = trunc i8 %35 to i1
  %37 = mul i32 %29, %15
  br i1 %36, label %_ZN12arrayOopDesc20base_offset_in_bytesE9BasicType.exit.thread38, label %_ZN12arrayOopDesc20base_offset_in_bytesE9BasicType.exit.thread40

_ZN12arrayOopDesc30element_type_should_be_alignedE9BasicType.exit.i: ; preds = %26
  switch i8 %1, label %_ZN12arrayOopDesc20base_offset_in_bytesE9BasicType.exit.thread [
    i8 11, label %_ZN12arrayOopDesc20base_offset_in_bytesE9BasicType.exit
    i8 7, label %_ZN12arrayOopDesc20base_offset_in_bytesE9BasicType.exit
  ]

_ZN12arrayOopDesc20base_offset_in_bytesE9BasicType.exit: ; preds = %_ZN12arrayOopDesc30element_type_should_be_alignedE9BasicType.exit.i, %_ZN12arrayOopDesc30element_type_should_be_alignedE9BasicType.exit.i
  %38 = mul i32 %29, %15
  %39 = and i32 %38, 7
  %40 = icmp eq i32 %39, 0
  br i1 %40, label %_ZN12arrayOopDesc30element_type_should_be_alignedE9BasicType.exit.i35, label %55

_ZN12arrayOopDesc20base_offset_in_bytesE9BasicType.exit.thread40: ; preds = %34
  %41 = and i32 %37, 7
  %42 = icmp eq i32 %41, 0
  br i1 %42, label %.thread39, label %55

_ZN12arrayOopDesc20base_offset_in_bytesE9BasicType.exit.thread38: ; preds = %34
  %43 = add i32 %32, %37
  %44 = and i32 %43, 7
  %45 = icmp eq i32 %44, 0
  br i1 %45, label %_ZN12arrayOopDesc20base_offset_in_bytesE9BasicType.exit37, label %55

_ZN12arrayOopDesc20base_offset_in_bytesE9BasicType.exit.thread: ; preds = %_ZN12arrayOopDesc30element_type_should_be_alignedE9BasicType.exit.i
  %46 = mul i32 %29, %15
  %47 = add i32 %32, %46
  %48 = and i32 %47, 7
  %49 = icmp eq i32 %48, 0
  br i1 %49, label %_ZN12arrayOopDesc30element_type_should_be_alignedE9BasicType.exit.i35, label %55

_ZN12arrayOopDesc30element_type_should_be_alignedE9BasicType.exit.i35: ; preds = %_ZN12arrayOopDesc20base_offset_in_bytesE9BasicType.exit, %_ZN12arrayOopDesc20base_offset_in_bytesE9BasicType.exit.thread
  switch i8 %1, label %_ZN12arrayOopDesc20base_offset_in_bytesE9BasicType.exit37 [
    i8 11, label %.thread39
    i8 7, label %.thread39
  ]

.thread39:                                        ; preds = %_ZN12arrayOopDesc20base_offset_in_bytesE9BasicType.exit.thread40, %_ZN12arrayOopDesc30element_type_should_be_alignedE9BasicType.exit.i35, %_ZN12arrayOopDesc30element_type_should_be_alignedE9BasicType.exit.i35
  br label %_ZN12arrayOopDesc20base_offset_in_bytesE9BasicType.exit37

_ZN12arrayOopDesc20base_offset_in_bytesE9BasicType.exit37: ; preds = %_ZN12arrayOopDesc20base_offset_in_bytesE9BasicType.exit.thread38, %_ZN12arrayOopDesc30element_type_should_be_alignedE9BasicType.exit.i35, %.thread39
  %50 = phi i32 [ 0, %.thread39 ], [ %32, %_ZN12arrayOopDesc30element_type_should_be_alignedE9BasicType.exit.i35 ], [ %32, %_ZN12arrayOopDesc20base_offset_in_bytesE9BasicType.exit.thread38 ]
  %51 = mul i32 %29, %22
  %52 = add i32 %50, %51
  %53 = and i32 %52, 7
  %54 = icmp eq i32 %53, 0
  br label %55

55:                                               ; preds = %_ZN12arrayOopDesc20base_offset_in_bytesE9BasicType.exit.thread40, %_ZN12arrayOopDesc20base_offset_in_bytesE9BasicType.exit.thread38, %_ZN12arrayOopDesc20base_offset_in_bytesE9BasicType.exit.thread, %_ZN12arrayOopDesc20base_offset_in_bytesE9BasicType.exit37, %_ZN12arrayOopDesc20base_offset_in_bytesE9BasicType.exit
  %56 = phi i1 [ false, %_ZN12arrayOopDesc20base_offset_in_bytesE9BasicType.exit ], [ %54, %_ZN12arrayOopDesc20base_offset_in_bytesE9BasicType.exit37 ], [ false, %_ZN12arrayOopDesc20base_offset_in_bytesE9BasicType.exit.thread ], [ false, %_ZN12arrayOopDesc20base_offset_in_bytesE9BasicType.exit.thread38 ], [ false, %_ZN12arrayOopDesc20base_offset_in_bytesE9BasicType.exit.thread40 ]
  %.not32 = icmp sge i32 %15, %22
  br label %60

57:                                               ; preds = %20, %13, %7
  %58 = icmp eq ptr %2, %3
  %59 = icmp ne ptr %2, null
  %or.cond3 = and i1 %59, %58
  br label %60

60:                                               ; preds = %57, %55
  %.not32.pn = phi i1 [ %.not32, %55 ], [ %or.cond3, %57 ]
  %.0 = phi i1 [ %56, %55 ], [ false, %57 ]
  %.029.shrunk = or i1 %.not32.pn, %4
  %61 = tail call noundef ptr @_ZN12StubRoutines25select_arraycopy_functionE9BasicTypebbRPKcb(i8 noundef zeroext %1, i1 noundef zeroext %.0, i1 noundef zeroext %.029.shrunk, ptr noundef nonnull align 8 dereferenceable(8) %5, i1 noundef zeroext %6) #6
  ret ptr %61
}